; Function Attrs: nounwind uwtable
define ptr @l_Lake_libRootFileContents(ptr noundef %0, ptr noundef %1) local_unnamed_addr #1 {
  %3 = load ptr, ptr @l_Lake_libRootFileContents___closed__1, align 8, !tbaa !4
  %4 = tail call ptr @lean_string_append(ptr noundef %3, ptr noundef %0) #6
  %5 = load ptr, ptr @l_Lake_libRootFileContents___closed__2, align 8, !tbaa !4
  %6 = tail call ptr @lean_string_append(ptr noundef %4, ptr noundef %5) #6
  %7 = load ptr, ptr @l_Lake_libRootFileContents___closed__3, align 8, !tbaa !4
  %8 = tail call ptr @l_Lean_Name_toString(ptr noundef %1, i8 noundef zeroext 1, ptr noundef %7) #6
  %9 = tail call ptr @lean_string_append(ptr noundef %6, ptr noundef %8) #6
  %10 = ptrtoint ptr %8 to i64
  %11 = and i64 %10, 1
  %.not = icmp eq i64 %11, 0
  br i1 %.not, label %12, label %lean_dec.exit

12:                                               ; preds = %2
  %13 = load i32, ptr %8, align 4, !tbaa !8
  %14 = icmp sgt i32 %13, 1
  br i1 %14, label %15, label %17, !prof !11

15:                                               ; preds = %12
  %16 = add nsw i32 %13, -1
  store i32 %16, ptr %8, align 4, !tbaa !8
  br label %lean_dec.exit

17:                                               ; preds = %12
  %.not.i = icmp eq i32 %13, 0
  br i1 %.not.i, label %lean_dec.exit, label %18

18:                                               ; preds = %17
  tail call void @lean_dec_ref_cold(ptr noundef nonnull %8) #6
  br label %lean_dec.exit

lean_dec.exit:                                    ; preds = %18, %17, %15, %2
  %19 = load ptr, ptr @l_Lake_libRootFileContents___closed__4, align 8, !tbaa !4
  %20 = tail call ptr @lean_string_append(ptr noundef %9, ptr noundef %19) #6
  ret ptr %20
}